target datalayout = "e-m:e-p270:32:32-p271:32:32-p272:64:64-i64:64-i128:128-f80:128-n8:16:32:64-S128"
target triple = "x86_64-pc-linux-gnu"

%struct.H5HF_hdr_t = type { %struct.H5C_cache_entry_t, i32, i32, i8, i8, i8, i8, %struct.H5HF_dtable_t, i64, i64, i32, i64, i64, %struct.H5O_pline_t, i64, i32, i64, i64, i64, i64, i64, i64, i64, i64, i64, i64, i64, i32, ptr, i64, i8, i8, i8, ptr, i32, ptr, %struct.H5HF_block_iter_t, ptr, i64, i8, i8, i64, i8, i8, i8, i8 }
%struct.H5C_cache_entry_t = type { ptr, i64, i64, ptr, i8, ptr, i8, i8, i8, i8, i32, i8, i8, i8, i8, i8, i32, ptr, i32, i32, i32, i32, i32, i8, i8, ptr, ptr, ptr, ptr, ptr, ptr, i8, i32, i8, i64, ptr, i64, i64, i32, i8, i32, i32, i8, ptr, ptr, ptr }
%struct.H5HF_dtable_t = type { %struct.H5HF_dtable_cparam_t, i64, i32, i32, i32, i32, i32, i32, i32, i64, ptr, ptr, ptr, ptr }
%struct.H5HF_dtable_cparam_t = type { i32, i64, i64, i32, i32 }
%struct.H5O_pline_t = type { %struct.H5O_shared_t, i32, i64, i64, ptr }
%struct.H5O_shared_t = type { i32, ptr, i32, %union.anon }
%union.anon = type { %struct.H5O_mesg_loc_t }
%struct.H5O_mesg_loc_t = type { i32, i64 }
%struct.H5HF_block_iter_t = type { i8, ptr }
%struct.H5HF_sect_add_ud_t = type { ptr }

@.str = private unnamed_addr constant [103 x i8] c"generated/home/dtcxzyw/WorkSpace/Projects/compilers/llvm-opt-benchmark/bench/hdf5/hdf5/src/H5HFspace.c\00", align 1
@H5E_HEAP_g = external global i64, align 8
@H5E_CANTINIT_g = external global i64, align 8
@__func__.H5HF__space_add = private unnamed_addr constant [16 x i8] c"H5HF__space_add\00", align 1
@.str.2 = private unnamed_addr constant [33 x i8] c"can't initialize heap free space\00", align 1
@H5E_CANTINSERT_g = external global i64, align 8
@.str.3 = private unnamed_addr constant [37 x i8] c"can't add section to heap free space\00", align 1

; Function Attrs: nounwind uwtable
define i32 @H5HF__space_add(ptr noundef %0, ptr noundef %1, i32 noundef %2) #0 {
  %4 = alloca ptr, align 8
  %5 = alloca ptr, align 8
  %6 = alloca i32, align 4
  %7 = alloca %struct.H5HF_sect_add_ud_t, align 8
  %8 = alloca i32, align 4
  %9 = alloca i8, align 1
  store ptr %0, ptr %4, align 8
  store ptr %1, ptr %5, align 8
  store i32 %2, ptr %6, align 4
  store i32 0, ptr %8, align 4
  store i8 0, ptr %9, align 1
  %10 = load ptr, ptr %4, align 8
  %11 = getelementptr inbounds %struct.H5HF_hdr_t, ptr %10, i32 0, i32 35
  %12 = load ptr, ptr %11, align 8
  %13 = icmp ne ptr %12, null
  br i1 %13, label %34, label %14

14:                                               ; preds = %3
  %15 = load ptr, ptr %4, align 8
  %16 = call i32 @H5HF__space_start(ptr noundef %15, i1 noundef zeroext true)
  %17 = icmp slt i32 %16, 0
  br i1 %17, label %18, label %33

18:                                               ; preds = %14
  br label %19

19:                                               ; preds = %18
  br label %20

20:                                               ; preds = %19
  br label %21

21:                                               ; preds = %20
  %22 = load i64, ptr @H5E_HEAP_g, align 8
  %23 = load i64, ptr @H5E_CANTINIT_g, align 8
  %24 = call i32 (ptr, ptr, i32, i64, i64, ptr, ...) @H5E_printf_stack(ptr noundef @.str, ptr noundef @__func__.H5HF__space_add, i32 noundef 156, i64 noundef %22, i64 noundef %23, ptr noundef @.str.2)
  br label %25

25:                                               ; preds = %21
  store i8 1, ptr %9, align 1
  %26 = load i8, ptr %9, align 1
  %27 = trunc i8 %26 to i1
  %28 = zext i1 %27 to i8
  store i8 %28, ptr %9, align 1
  br label %29

29:                                               ; preds = %25
  br label %30

30:                                               ; preds = %29
  store i32 -1, ptr %8, align 4
  br label %63

31:                                               ; No predecessors!
  br label %32

32:                                               ; preds = %31
  br label %33

33:                                               ; preds = %32, %14
  br label %34

34:                                               ; preds = %33, %3
  %35 = load ptr, ptr %4, align 8
  %36 = getelementptr inbounds %struct.H5HF_sect_add_ud_t, ptr %7, i32 0, i32 0
  store ptr %35, ptr %36, align 8
  %37 = load ptr, ptr %4, align 8
  %38 = getelementptr inbounds %struct.H5HF_hdr_t, ptr %37, i32 0, i32 28
  %39 = load ptr, ptr %38, align 8
  %40 = load ptr, ptr %4, align 8
  %41 = getelementptr inbounds %struct.H5HF_hdr_t, ptr %40, i32 0, i32 35
  %42 = load ptr, ptr %41, align 8
  %43 = load ptr, ptr %5, align 8
  %44 = load i32, ptr %6, align 4
  %45 = call i32 @H5FS_sect_add(ptr noundef %39, ptr noundef %42, ptr noundef %43, i32 noundef %44, ptr noundef %7)
  %46 = icmp slt i32 %45, 0
  br i1 %46, label %47, label %62

47:                                               ; preds = %34
  br label %48

48:                                               ; preds = %47
  br label %49

49:                                               ; preds = %48
  br label %50

50:                                               ; preds = %49
  %51 = load i64, ptr @H5E_HEAP_g, align 8
  %52 = load i64, ptr @H5E_CANTINSERT_g, align 8
  %53 = call i32 (ptr, ptr, i32, i64, i64, ptr, ...) @H5E_printf_stack(ptr noundef @.str, ptr noundef @__func__.H5HF__space_add, i32 noundef 163, i64 noundef %51, i64 noundef %52, ptr noundef @.str.3)
  br label %54

54:                                               ; preds = %50
  store i8 1, ptr %9, align 1
  %55 = load i8, ptr %9, align 1
  %56 = trunc i8 %55 to i1
  %57 = zext i1 %56 to i8
  store i8 %57, ptr %9, align 1
  br label %58

58:                                               ; preds = %54
  br label %59

59:                                               ; preds = %58
  store i32 -1, ptr %8, align 4
  br label %63

60:                                               ; No predecessors!
  br label %61

61:                                               ; preds = %60
  br label %62

62:                                               ; preds = %61, %34
  br label %63

63:                                               ; preds = %62, %59, %30
  %64 = load i32, ptr %8, align 4
  ret i32 %64
}