; Function Attrs: nounwind uwtable
define range(i32 -1, 1) i32 @H5HF__space_add(ptr noundef %0, ptr noundef %1, i32 noundef %2) local_unnamed_addr #0 {
  %4 = alloca %struct.H5HF_sect_add_ud_t, align 8
  %5 = getelementptr inbounds i8, ptr %0, i64 640
  %6 = load ptr, ptr %5, align 8
  %.not = icmp eq ptr %6, null
  br i1 %.not, label %7, label %14

7:                                                ; preds = %3
  %8 = tail call i32 @H5HF__space_start(ptr noundef nonnull %0, i1 noundef zeroext true)
  %9 = icmp slt i32 %8, 0
  br i1 %9, label %10, label %._crit_edge

._crit_edge:                                      ; preds = %7
  %.pre = load ptr, ptr %5, align 8
  br label %14

10:                                               ; preds = %7
  %11 = load i64, ptr @H5E_HEAP_g, align 8
  %12 = load i64, ptr @H5E_CANTINIT_g, align 8
  %13 = tail call i32 (ptr, ptr, i32, i64, i64, ptr, ...) @H5E_printf_stack(ptr noundef nonnull @.str, ptr noundef nonnull @__func__.H5HF__space_add, i32 noundef 156, i64 noundef %11, i64 noundef %12, ptr noundef nonnull @.str.2) #4
  br label %24

14:                                               ; preds = %._crit_edge, %3
  %15 = phi ptr [ %.pre, %._crit_edge ], [ %6, %3 ]
  store ptr %0, ptr %4, align 8
  %16 = getelementptr inbounds i8, ptr %0, i64 600
  %17 = load ptr, ptr %16, align 8
  %18 = call i32 @H5FS_sect_add(ptr noundef %17, ptr noundef %15, ptr noundef %1, i32 noundef %2, ptr noundef nonnull %4) #4
  %19 = icmp slt i32 %18, 0
  br i1 %19, label %20, label %24

20:                                               ; preds = %14
  %21 = load i64, ptr @H5E_HEAP_g, align 8
  %22 = load i64, ptr @H5E_CANTINSERT_g, align 8
  %23 = call i32 (ptr, ptr, i32, i64, i64, ptr, ...) @H5E_printf_stack(ptr noundef nonnull @.str, ptr noundef nonnull @__func__.H5HF__space_add, i32 noundef 163, i64 noundef %21, i64 noundef %22, ptr noundef nonnull @.str.3) #4
  br label %24

24:                                               ; preds = %14, %20, %10
  %.0 = phi i32 [ -1, %20 ], [ 0, %14 ], [ -1, %10 ]
  ret i32 %.0
}